target datalayout = "e-m:e-p270:32:32-p271:32:32-p272:64:64-i64:64-i128:128-f80:128-n8:16:32:64-S128"
target triple = "x86_64-unknown-linux-gnu"

; Function Attrs: mustprogress nounwind uwtable
define hidden noundef zeroext i1 @_ZNK6Assimp11X3DImporter31PostprocessHelper_ElementIsMeshE11X3DElemType(ptr noundef nonnull align 8 dereferenceable(120) %this, i32 noundef %pType) #0 align 2 {
entry:
  %retval = alloca i1, align 1
  %this.addr = alloca ptr, align 8
  %pType.addr = alloca i32, align 4
  store ptr %this, ptr %this.addr, align 8
  store i32 %pType, ptr %pType.addr, align 4
  %0 = load i32, ptr %pType.addr, align 4
  %cmp = icmp eq i32 %0, 7
  br i1 %cmp, label %if.then, label %lor.lhs.false

lor.lhs.false:                                    ; preds = %entry
  %1 = load i32, ptr %pType.addr, align 4
  %cmp2 = icmp eq i32 %1, 8
  br i1 %cmp2, label %if.then, label %lor.lhs.false3

lor.lhs.false3:                                   ; preds = %lor.lhs.false
  %2 = load i32, ptr %pType.addr, align 4
  %cmp4 = icmp eq i32 %2, 15
  br i1 %cmp4, label %if.then, label %lor.lhs.false5

lor.lhs.false5:                                   ; preds = %lor.lhs.false3
  %3 = load i32, ptr %pType.addr, align 4
  %cmp6 = icmp eq i32 %3, 9
  br i1 %cmp6, label %if.then, label %lor.lhs.false7

lor.lhs.false7:                                   ; preds = %lor.lhs.false5
  %4 = load i32, ptr %pType.addr, align 4
  %cmp8 = icmp eq i32 %4, 16
  br i1 %cmp8, label %if.then, label %lor.lhs.false9

lor.lhs.false9:                                   ; preds = %lor.lhs.false7
  %5 = load i32, ptr %pType.addr, align 4
  %cmp10 = icmp eq i32 %5, 17
  br i1 %cmp10, label %if.then, label %lor.lhs.false11

lor.lhs.false11:                                  ; preds = %lor.lhs.false9
  %6 = load i32, ptr %pType.addr, align 4
  %cmp12 = icmp eq i32 %6, 10
  br i1 %cmp12, label %if.then, label %lor.lhs.false13

lor.lhs.false13:                                  ; preds = %lor.lhs.false11
  %7 = load i32, ptr %pType.addr, align 4
  %cmp14 = icmp eq i32 %7, 19
  br i1 %cmp14, label %if.then, label %lor.lhs.false15

lor.lhs.false15:                                  ; preds = %lor.lhs.false13
  %8 = load i32, ptr %pType.addr, align 4
  %cmp16 = icmp eq i32 %8, 20
  br i1 %cmp16, label %if.then, label %lor.lhs.false17

lor.lhs.false17:                                  ; preds = %lor.lhs.false15
  %9 = load i32, ptr %pType.addr, align 4
  %cmp18 = icmp eq i32 %9, 24
  br i1 %cmp18, label %if.then, label %lor.lhs.false19

lor.lhs.false19:                                  ; preds = %lor.lhs.false17
  %10 = load i32, ptr %pType.addr, align 4
  %cmp20 = icmp eq i32 %10, 25
  br i1 %cmp20, label %if.then, label %lor.lhs.false21

lor.lhs.false21:                                  ; preds = %lor.lhs.false19
  %11 = load i32, ptr %pType.addr, align 4
  %cmp22 = icmp eq i32 %11, 27
  br i1 %cmp22, label %if.then, label %lor.lhs.false23

lor.lhs.false23:                                  ; preds = %lor.lhs.false21
  %12 = load i32, ptr %pType.addr, align 4
  %cmp24 = icmp eq i32 %12, 26
  br i1 %cmp24, label %if.then, label %lor.lhs.false25

lor.lhs.false25:                                  ; preds = %lor.lhs.false23
  %13 = load i32, ptr %pType.addr, align 4
  %cmp26 = icmp eq i32 %13, 28
  br i1 %cmp26, label %if.then, label %lor.lhs.false27

lor.lhs.false27:                                  ; preds = %lor.lhs.false25
  %14 = load i32, ptr %pType.addr, align 4
  %cmp28 = icmp eq i32 %14, 30
  br i1 %cmp28, label %if.then, label %lor.lhs.false29

lor.lhs.false29:                                  ; preds = %lor.lhs.false27
  %15 = load i32, ptr %pType.addr, align 4
  %cmp30 = icmp eq i32 %15, 29
  br i1 %cmp30, label %if.then, label %lor.lhs.false31

lor.lhs.false31:                                  ; preds = %lor.lhs.false29
  %16 = load i32, ptr %pType.addr, align 4
  %cmp32 = icmp eq i32 %16, 11
  br i1 %cmp32, label %if.then, label %lor.lhs.false33

lor.lhs.false33:                                  ; preds = %lor.lhs.false31
  %17 = load i32, ptr %pType.addr, align 4
  %cmp34 = icmp eq i32 %17, 12
  br i1 %cmp34, label %if.then, label %lor.lhs.false35

lor.lhs.false35:                                  ; preds = %lor.lhs.false33
  %18 = load i32, ptr %pType.addr, align 4
  %cmp36 = icmp eq i32 %18, 13
  br i1 %cmp36, label %if.then, label %lor.lhs.false37

lor.lhs.false37:                                  ; preds = %lor.lhs.false35
  %19 = load i32, ptr %pType.addr, align 4
  %cmp38 = icmp eq i32 %19, 18
  br i1 %cmp38, label %if.then, label %lor.lhs.false39

lor.lhs.false39:                                  ; preds = %lor.lhs.false37
  %20 = load i32, ptr %pType.addr, align 4
  %cmp40 = icmp eq i32 %20, 32
  br i1 %cmp40, label %if.then, label %lor.lhs.false41

lor.lhs.false41:                                  ; preds = %lor.lhs.false39
  %21 = load i32, ptr %pType.addr, align 4
  %cmp42 = icmp eq i32 %21, 31
  br i1 %cmp42, label %if.then, label %lor.lhs.false43

lor.lhs.false43:                                  ; preds = %lor.lhs.false41
  %22 = load i32, ptr %pType.addr, align 4
  %cmp44 = icmp eq i32 %22, 14
  br i1 %cmp44, label %if.then, label %lor.lhs.false45

lor.lhs.false45:                                  ; preds = %lor.lhs.false43
  %23 = load i32, ptr %pType.addr, align 4
  %cmp46 = icmp eq i32 %23, 33
  br i1 %cmp46, label %if.then, label %if.else

if.then:                                          ; preds = %lor.lhs.false45, %lor.lhs.false43, %lor.lhs.false41, %lor.lhs.false39, %lor.lhs.false37, %lor.lhs.false35, %lor.lhs.false33, %lor.lhs.false31, %lor.lhs.false29, %lor.lhs.false27, %lor.lhs.false25, %lor.lhs.false23, %lor.lhs.false21, %lor.lhs.false19, %lor.lhs.false17, %lor.lhs.false15, %lor.lhs.false13, %lor.lhs.false11, %lor.lhs.false9, %lor.lhs.false7, %lor.lhs.false5, %lor.lhs.false3, %lor.lhs.false, %entry
  store i1 true, ptr %retval, align 1
  br label %return

if.else:                                          ; preds = %lor.lhs.false45
  store i1 false, ptr %retval, align 1
  br label %return

return:                                           ; preds = %if.else, %if.then
  %24 = load i1, ptr %retval, align 1
  ret i1 %24
}